; Function Attrs: mustprogress nofree norecurse nosync nounwind willreturn memory(none) uwtable
define internal double @trc_smpte_st2084_inv(double noundef %0) #0 {
  %2 = tail call nsz double @llvm.pow.f64(double %0, double 0x3F89F9B5860989B1)
  %3 = fcmp nsz olt double %2, 0x3FEAC00000000000
  br i1 %3, label %10, label %4

4:                                                ; preds = %1
  %5 = fadd nsz double %2, 0xBFEAC00000000000
  %6 = tail call nsz double @llvm.fmuladd.f64(double %2, double -1.868750e+01, double 0x4032DA0000000000)
  %7 = fdiv nsz double %5, %6
  %8 = tail call nsz double @llvm.pow.f64(double %7, double 0x40191C0D56E7162B)
  %9 = fmul nsz double %8, 1.000000e+04
  br label %10

10:                                               ; preds = %1, %4
  %11 = phi nsz double [ %9, %4 ], [ 0.000000e+00, %1 ]
  ret double %11
}